; Function Attrs: mustprogress nofree norecurse nosync nounwind willreturn memory(read, inaccessiblemem: none) uwtable
define hidden noundef zeroext i1 @_ZN3sat14anf_simplifier16has_relevant_varERKNS_6clauseE(ptr nocapture noundef nonnull readonly align 8 dereferenceable(96) %this, ptr noundef nonnull readonly align 4 dereferenceable(20) %c) local_unnamed_addr #9 align 2 {
entry:
  %m_size.i = getelementptr inbounds i8, ptr %c, i64 4
  %0 = load i32, ptr %m_size.i, align 4
  %idx.ext.i = zext i32 %0 to i64
  %add.ptr.i.idx = shl nuw nsw i64 %idx.ext.i, 2
  %1 = getelementptr i8, ptr %c, i64 %add.ptr.i.idx
  %add.ptr.i.ptr = getelementptr i8, ptr %1, i64 20
  %cmp.not5.not = icmp eq i32 %0, 0
  br i1 %cmp.not5.not, label %return, label %for.body.lr.ph

for.body.lr.ph:                                   ; preds = %entry
  %m_lits.i.ptr = getelementptr inbounds i8, ptr %c, i64 20
  %m_relevant.i.i = getelementptr inbounds i8, ptr %this, i64 24
  %2 = load ptr, ptr %m_relevant.i.i, align 8
  br label %for.body

for.body:                                         ; preds = %for.body, %for.body.lr.ph
  %__begin1.06 = phi ptr [ %m_lits.i.ptr, %for.body.lr.ph ], [ %incdec.ptr, %for.body ]
  %l.sroa.0.0.copyload = load i32, ptr %__begin1.06, align 4
  %shr.i.i = lshr i32 %l.sroa.0.0.copyload, 1
  %idxprom.i.i.i = zext nneg i32 %shr.i.i to i64
  %arrayidx.i.i.i = getelementptr inbounds i8, ptr %2, i64 %idxprom.i.i.i
  %3 = load i8, ptr %arrayidx.i.i.i, align 1
  %4 = and i8 %3, 1
  %tobool.i.i.not.not = icmp ne i8 %4, 0
  %incdec.ptr = getelementptr inbounds i8, ptr %__begin1.06, i64 4
  %cmp.not.not = icmp eq ptr %incdec.ptr, %add.ptr.i.ptr
  %or.cond = select i1 %tobool.i.i.not.not, i1 true, i1 %cmp.not.not
  br i1 %or.cond, label %return, label %for.body

return:                                           ; preds = %for.body, %entry
  %cmp.not.lcssa = phi i1 [ false, %entry ], [ %tobool.i.i.not.not, %for.body ]
  ret i1 %cmp.not.lcssa
}